; Function Attrs: mustprogress uwtable
define void @_ZN6casadi8Function6createEPNS_16FunctionInternalE(ptr dead_on_unwind noalias writable sret(%"class.casadi::Function") align 8 %0, ptr noundef %1) local_unnamed_addr #4 align 2 personality ptr @__gxx_personality_v0 {
  tail call void @_ZN6casadi8FunctionC1Ev(ptr noundef nonnull align 8 dereferenceable(8) %0)
  invoke void @_ZN6casadi13GenericSharedINS_12SharedObjectENS_20SharedObjectInternalEE3ownEPS2_(ptr noundef nonnull align 8 dereferenceable(8) %0, ptr noundef %1)
          to label %5 unwind label %3

3:                                                ; preds = %2
  %4 = landingpad { ptr, i32 }
          cleanup
  tail call void @_ZN6casadi8FunctionD1Ev(ptr noundef nonnull align 8 dereferenceable(8) %0) #30
  resume { ptr, i32 } %4

5:                                                ; preds = %2
  ret void
}